; Function Attrs: nounwind uwtable
define hidden ptr @spl_gen_private_prop_name(ptr nocapture noundef readonly %0, ptr noundef %1, i64 noundef %2) local_unnamed_addr #0 {
  %4 = getelementptr inbounds i8, ptr %0, i64 8
  %5 = load ptr, ptr %4, align 8
  %6 = getelementptr inbounds i8, ptr %5, i64 24
  %7 = getelementptr inbounds i8, ptr %5, i64 16
  %8 = load i64, ptr %7, align 8
  %9 = tail call ptr @zend_mangle_property_name(ptr noundef nonnull %6, i64 noundef %8, ptr noundef %1, i64 noundef %2, i1 noundef zeroext false) #4
  ret ptr %9
}